; Function Attrs: nounwind uwtable
define ptr @l_Lean_Elab_Deriving_FromToJson_mkToJsonAuxFunction___lambda__1___boxed(ptr noundef %0, ptr noundef %1, ptr noundef %2, ptr noundef %3, ptr noundef %4, ptr noundef %5, ptr noundef %6, ptr noundef %7, ptr noundef %8, ptr noundef %9, ptr noundef %10, ptr noundef %11) #0 {
  %13 = tail call ptr @l_Lean_Elab_Deriving_FromToJson_mkToJsonAuxFunction___lambda__1(ptr noundef %0, ptr noundef %1, ptr noundef %2, ptr noundef %3, ptr poison, ptr noundef %5, ptr noundef %6, ptr noundef %7, ptr noundef %8, ptr noundef %9, ptr noundef %10, ptr noundef %11)
  %14 = ptrtoint ptr %4 to i64
  %15 = and i64 %14, 1
  %.not = icmp eq i64 %15, 0
  br i1 %.not, label %16, label %lean_dec.exit17

16:                                               ; preds = %12
  %17 = load i32, ptr %4, align 4, !tbaa !8
  %18 = icmp sgt i32 %17, 1
  br i1 %18, label %19, label %21, !prof !11

19:                                               ; preds = %16
  %20 = add nsw i32 %17, -1
  store i32 %20, ptr %4, align 4, !tbaa !8
  br label %lean_dec.exit17

21:                                               ; preds = %16
  %.not.i = icmp eq i32 %17, 0
  br i1 %.not.i, label %lean_dec.exit17, label %22

22:                                               ; preds = %21
  tail call void @lean_dec_ref_cold(ptr noundef nonnull %4) #5
  br label %lean_dec.exit17

lean_dec.exit17:                                  ; preds = %22, %21, %19, %12
  %23 = ptrtoint ptr %3 to i64
  %24 = and i64 %23, 1
  %.not22 = icmp eq i64 %24, 0
  br i1 %.not22, label %25, label %lean_dec.exit16

25:                                               ; preds = %lean_dec.exit17
  %26 = load i32, ptr %3, align 4, !tbaa !8
  %27 = icmp sgt i32 %26, 1
  br i1 %27, label %28, label %30, !prof !11

28:                                               ; preds = %25
  %29 = add nsw i32 %26, -1
  store i32 %29, ptr %3, align 4, !tbaa !8
  br label %lean_dec.exit16

30:                                               ; preds = %25
  %.not.i18 = icmp eq i32 %26, 0
  br i1 %.not.i18, label %lean_dec.exit16, label %31

31:                                               ; preds = %30
  tail call void @lean_dec_ref_cold(ptr noundef nonnull %3) #5
  br label %lean_dec.exit16

lean_dec.exit16:                                  ; preds = %31, %30, %28, %lean_dec.exit17
  %32 = ptrtoint ptr %1 to i64
  %33 = and i64 %32, 1
  %.not23 = icmp eq i64 %33, 0
  br i1 %.not23, label %34, label %lean_dec.exit

34:                                               ; preds = %lean_dec.exit16
  %35 = load i32, ptr %1, align 4, !tbaa !8
  %36 = icmp sgt i32 %35, 1
  br i1 %36, label %37, label %39, !prof !11

37:                                               ; preds = %34
  %38 = add nsw i32 %35, -1
  store i32 %38, ptr %1, align 4, !tbaa !8
  br label %lean_dec.exit

39:                                               ; preds = %34
  %.not.i20 = icmp eq i32 %35, 0
  br i1 %.not.i20, label %lean_dec.exit, label %40

40:                                               ; preds = %39
  tail call void @lean_dec_ref_cold(ptr noundef nonnull %1) #5
  br label %lean_dec.exit

lean_dec.exit:                                    ; preds = %40, %39, %37, %lean_dec.exit16
  ret ptr %13
}